Certificate:
    Data:
        Version: 3 (0x2)
        Serial Number:
            07:ca:c7:21:14:87:ff:ad:10:07:7f:e3:da:28:4f:19:ce:84:d1:7f
        Signature Algorithm: sha256WithRSAEncryption
        Issuer: C=CH, O=HEIG-VD, CN=HEIG-VDRoot
        Validity
            Not Before: Jun 18 13:56:45 2024 GMT
            Not After : Jun 18 13:56:45 2034 GMT
        Subject: C=CH, O=HEIG-VD, CN=RAYBURN-TLS
        Subject Public Key Info:
            Public Key Algorithm: rsaEncryption
                Public-Key: (2048 bit)
                Modulus:
                    00:e8:0c:dc:02:ba:43:28:a9:4b:8a:47:27:7c:d9:
                    e1:7a:75:38:9d:06:ad:74:b0:b3:e2:4f:8b:ab:da:
                    aa:0f:c6:58:aa:3e:a9:77:ac:b3:28:21:6b:eb:9f:
                    e5:b0:7c:66:89:8f:4c:3f:79:b2:1e:59:62:0c:7c:
                    7c:31:29:bc:dd:80:f8:d3:ab:d0:55:65:c4:c7:a6:
                    24:e9:1b:ab:94:8e:01:12:08:cd:1d:38:a3:63:23:
                    37:db:5e:41:b4:c6:a3:9e:5f:78:ab:df:d2:b1:0f:
                    c2:31:51:63:fd:17:f3:da:e4:b6:88:b6:a2:a0:8b:
                    9f:7f:2c:fd:50:ee:ef:02:6c:b2:27:7c:72:4d:e7:
                    6a:68:68:7c:fe:73:aa:fc:bb:d5:77:ee:82:4b:9d:
                    5c:14:28:f6:a3:c4:7e:f7:3a:84:4c:b2:e0:b4:cf:
                    07:72:62:0d:7a:39:3e:08:0c:a8:5f:28:4a:99:1f:
                    6b:9f:74:ec:81:f6:69:f1:09:f7:9b:6c:8a:dd:f1:
                    36:1e:49:37:d2:56:91:e9:32:ea:13:3a:5a:a8:fc:
                    79:a4:9a:d3:ec:8d:4e:54:59:2f:12:08:b5:64:36:
                    5e:77:ed:04:98:6b:9e:b5:13:7b:d7:1e:0b:67:fa:
                    3a:b5:76:24:b6:b9:71:57:41:df:a7:7d:59:eb:e2:
                    ce:99
                Exponent: 65537 (0x10001)
        X509v3 extensions:
            X509v3 Key Usage: critical
                Certificate Sign, CRL Sign
            X509v3 Basic Constraints: critical
                CA:TRUE, pathlen:0
            X509v3 Subject Key Identifier: 
                48:74:E9:14:51:0A:18:B9:7A:F9:22:27:C0:D3:6F:C4:35:70:48:AE
            X509v3 Authority Key Identifier: 
                3B:D0:A5:0C:62:70:E5:F4:B4:04:20:46:55:E8:EB:57:19:89:3E:E4
    Signature Algorithm: sha256WithRSAEncryption
    Signature Value:
        4f:5b:67:b5:d2:27:8c:34:bf:2b:c7:eb:b8:6b:e7:5e:42:a0:
        49:5e:8e:53:ce:36:eb:a3:81:14:29:59:00:0d:10:39:83:be:
        f1:6d:db:be:8a:62:19:73:f9:f2:8f:75:ab:5e:3c:a6:9c:b4:
        e8:48:91:19:38:41:fd:70:f6:6e:b1:f0:82:dd:73:13:d0:05:
        0b:5c:e2:2b:0e:2e:4e:96:90:4a:66:91:4c:ce:93:80:4e:5d:
        29:af:c7:82:88:79:a9:f0:11:01:20:43:9b:d8:4a:0c:24:7d:
        28:06:ad:08:af:57:28:22:a5:9b:6a:48:eb:d1:82:18:f8:2b:
        83:31:5f:00:c5:6a:a2:84:2e:04:fd:8c:3a:8f:4d:90:82:9c:
        94:46:bb:08:62:d8:70:c0:26:50:30:e1:c0:03:ff:9d:00:a1:
        31:35:05:3b:27:62:c4:0f:99:05:95:d3:9c:74:db:cc:4f:2d:
        a2:ff:cc:96:f4:c1:ca:12:0c:ad:be:4b:0c:4a:bf:34:56:bf:
        15:2c:8a:81:e5:1d:a0:e1:ff:56:1c:d2:00:f9:a8:15:ec:6c:
        78:2d:14:3d:32:11:0f:36:77:6c:9f:f8:be:57:2b:76:05:ab:
        5b:eb:99:21:0e:d9:a4:2b:9f:f6:59:fc:70:79:e7:a6:5a:80:
        12:b4:2f:92
-----BEGIN CERTIFICATE-----
MIIDXjCCAkagAwIBAgIUB8rHIRSH/60QB3/j2ihPGc6E0X8wDQYJKoZIhvcNAQEL
BQAwNTELMAkGA1UEBhMCQ0gxEDAOBgNVBAoMB0hFSUctVkQxFDASBgNVBAMMC0hF
SUctVkRSb290MB4XDTI0MDYxODEzNTY0NVoXDTM0MDYxODEzNTY0NVowNTELMAkG
A1UEBhMCQ0gxEDAOBgNVBAoMB0hFSUctVkQxFDASBgNVBAMMC1JBWUJVUk4tVExT
MIIBIjANBgkqhkiG9w0BAQEFAAOCAQ8AMIIBCgKCAQEA6AzcArpDKKlLikcnfNnh
enU4nQatdLCz4k+Lq9qqD8ZYqj6pd6yzKCFr65/lsHxmiY9MP3myHlliDHx8MSm8
3YD406vQVWXEx6Yk6RurlI4BEgjNHTijYyM3215BtMajnl94q9/SsQ/CMVFj/Rfz
2uS2iLaioIuffyz9UO7vAmyyJ3xyTedqaGh8/nOq/LvVd+6CS51cFCj2o8R+9zqE
TLLgtM8HcmINejk+CAyoXyhKmR9rn3TsgfZp8Qn3m2yK3fE2Hkk30laR6TLqEzpa
qPx5pJrT7I1OVFkvEgi1ZDZed+0EmGuetRN71x4LZ/o6tXYktrlxV0Hfp31Z6+LO
mQIDAQABo2YwZDAOBgNVHQ8BAf8EBAMCAQYwEgYDVR0TAQH/BAgwBgEB/wIBADAd
BgNVHQ4EFgQUSHTpFFEKGLl6+SInwNNvxDVwSK4wHwYDVR0jBBgwFoAUO9ClDGJw
5fS0BCBGVejrVxmJPuQwDQYJKoZIhvcNAQELBQADggEBAE9bZ7XSJ4w0vyvH67hr
515CoElejlPONuujgRQpWQANEDmDvvFt276KYhlz+fKPdatePKactOhIkRk4Qf1w
9m6x8ILdcxPQBQtc4isOLk6WkEpmkUzOk4BOXSmvx4KIeanwEQEgQ5vYSgwkfSgG
rQivVygipZtqSOvRghj4K4MxXwDFaqKELgT9jDqPTZCCnJRGuwhi2HDAJlAw4cAD
/50AoTE1BTsnYsQPmQWV05x028xPLaL/zJb0wcoSDK2+SwxKvzRWvxUsioHlHaDh
/1Yc0gD5qBXsbHgtFD0yEQ82d2yf+L5XK3YFq1vrmSEO2aQrn/ZZ/HB556ZagBK0
L5I=
-----END CERTIFICATE-----
