Certificate:
    Data:
        Version: 3 (0x2)
        Serial Number:
            81:5c:55:ce:41:46:fc:12
    Signature Algorithm: sha256WithRSAEncryption
        Issuer: C=CH, O=HEIG-VD, CN=RAYBURN-TLS
        Validity
            Not Before: Jun 18 14:37:05 2024 GMT
            Not After : Jul 23 14:37:05 2025 GMT
        Subject: C=CH, O=HEIG-VD, CN=IP
        Subject Public Key Info:
            Public Key Algorithm: rsaEncryption
                Public-Key: (2048 bit)
                Modulus:
                    00:d8:ca:7a:e5:84:28:3b:b2:e4:37:73:40:d4:e9:
                    46:c5:4d:33:27:2a:4a:52:70:e9:40:9e:2a:31:b1:
                    39:1f:d4:d7:a8:9d:e9:91:ad:ac:ad:94:f2:b3:c7:
                    cf:d0:48:03:c5:df:d8:26:1e:80:d8:6a:4d:d0:d6:
                    d0:8c:32:0b:03:bc:05:3c:4b:db:fa:44:dd:89:26:
                    05:38:16:35:03:d6:5c:9a:a9:5e:bf:08:fa:0c:8c:
                    c0:fe:be:3a:ab:b9:49:d5:31:30:7e:dd:07:8b:49:
                    e6:77:2f:85:d6:41:82:8f:69:3c:c6:0a:66:eb:d2:
                    8b:e6:51:68:10:5e:c8:c6:1f:18:9a:7b:f4:32:7c:
                    88:20:0a:4a:ea:c9:e3:b0:3f:64:11:76:5d:a3:32:
                    16:93:dd:4a:f5:9e:3e:43:ea:bf:0d:6a:1c:83:9e:
                    35:f8:fb:c7:c5:cf:4f:8d:86:2b:80:7d:7a:19:71:
                    fa:62:67:cc:71:cb:74:3c:63:31:94:55:56:89:cc:
                    c1:61:8e:f5:cd:3c:ce:c0:52:67:8d:52:25:8a:da:
                    46:57:62:41:71:d5:66:3e:89:33:ec:a8:ab:d0:f6:
                    16:39:83:a4:33:84:d1:21:7f:96:2d:9e:6f:d4:79:
                    4c:2f:2f:af:0c:57:61:a4:e8:30:21:79:82:24:33:
                    2e:e7
                Exponent: 65537 (0x10001)
        X509v3 extensions:
            X509v3 Key Usage: critical
                Digital Signature, Key Encipherment
            X509v3 Basic Constraints: 
                CA:FALSE
            X509v3 Extended Key Usage: 
                TLS Web Server Authentication, TLS Web Client Authentication
            X509v3 Subject Key Identifier: 
                84:82:4B:65:31:76:0C:6F:52:5D:CE:F7:47:5D:91:88:AD:60:36:13
            X509v3 Authority Key Identifier: 
                keyid:48:74:E9:14:51:0A:18:B9:7A:F9:22:27:C0:D3:6F:C4:35:70:48:AE

            X509v3 Subject Alternative Name: 
                IP Address:10.190.133.22
    Signature Algorithm: sha256WithRSAEncryption
         55:57:ce:c1:6b:82:c3:06:23:24:ce:0f:83:38:bf:dd:ca:c6:
         b5:3c:15:f8:7d:8e:25:f9:8d:32:43:6a:5c:de:d9:0a:93:27:
         f2:c4:f2:42:a1:cc:71:36:c5:d3:b0:af:4d:46:ea:81:e1:94:
         5e:ce:95:b0:2a:58:f7:a3:b8:54:a8:bc:92:d9:0e:67:da:bb:
         67:c5:1c:a5:26:01:98:40:c1:c1:7b:61:b4:6b:8d:ea:03:51:
         18:2c:7c:0c:6c:f0:91:76:9a:01:ff:9f:4b:40:b4:ac:1a:05:
         09:d5:35:20:9f:59:e4:9c:52:da:57:f4:5b:32:a9:19:30:37:
         4c:ad:e9:ef:fd:07:83:7d:b5:05:d0:47:f3:06:34:4a:8f:f6:
         2b:68:df:b7:0f:c1:8f:8d:bd:66:ff:97:5a:5c:93:9e:b7:01:
         af:e5:f3:1e:bb:5d:8d:91:af:3b:02:e0:7a:34:9c:c3:03:cd:
         5d:0f:60:99:42:ad:9b:66:dd:6b:c8:e1:67:2f:af:1c:b5:f1:
         32:e1:03:3b:cc:39:1a:f9:fd:26:78:9b:7f:65:23:26:9a:d0:
         ff:80:44:92:f5:98:b8:76:b1:74:a0:b3:57:a5:64:54:8a:f8:
         ce:43:c5:00:c2:6b:3d:57:08:7c:f8:aa:9f:cd:4d:39:33:d3:
         b4:ed:41:0c
-----BEGIN CERTIFICATE-----
MIIDczCCAlugAwIBAgIJAIFcVc5BRvwSMA0GCSqGSIb3DQEBCwUAMDUxCzAJBgNV
BAYTAkNIMRAwDgYDVQQKDAdIRUlHLVZEMRQwEgYDVQQDDAtSQVlCVVJOLVRMUzAe
Fw0yNDA2MTgxNDM3MDVaFw0yNTA3MjMxNDM3MDVaMCwxCzAJBgNVBAYTAkNIMRAw
DgYDVQQKDAdIRUlHLVZEMQswCQYDVQQDDAJJUDCCASIwDQYJKoZIhvcNAQEBBQAD
ggEPADCCAQoCggEBANjKeuWEKDuy5DdzQNTpRsVNMycqSlJw6UCeKjGxOR/U16id
6ZGtrK2U8rPHz9BIA8Xf2CYegNhqTdDW0IwyCwO8BTxL2/pE3YkmBTgWNQPWXJqp
Xr8I+gyMwP6+Oqu5SdUxMH7dB4tJ5ncvhdZBgo9pPMYKZuvSi+ZRaBBeyMYfGJp7
9DJ8iCAKSurJ47A/ZBF2XaMyFpPdSvWePkPqvw1qHIOeNfj7x8XPT42GK4B9ehlx
+mJnzHHLdDxjMZRVVonMwWGO9c08zsBSZ41SJYraRldiQXHVZj6JM+yoq9D2FjmD
pDOE0SF/li2eb9R5TC8vrwxXYaToMCF5giQzLucCAwEAAaOBjjCBizAOBgNVHQ8B
Af8EBAMCBaAwCQYDVR0TBAIwADAdBgNVHSUEFjAUBggrBgEFBQcDAQYIKwYBBQUH
AwIwHQYDVR0OBBYEFISCS2UxdgxvUl3O90ddkYitYDYTMB8GA1UdIwQYMBaAFEh0
6RRRChi5evkiJ8DTb8Q1cEiuMA8GA1UdEQQIMAaHBAq+hRYwDQYJKoZIhvcNAQEL
BQADggEBAFVXzsFrgsMGIyTOD4M4v93KxrU8Ffh9jiX5jTJDalze2QqTJ/LE8kKh
zHE2xdOwr01G6oHhlF7OlbAqWPejuFSovJLZDmfau2fFHKUmAZhAwcF7YbRrjeoD
URgsfAxs8JF2mgH/n0tAtKwaBQnVNSCfWeScUtpX9FsyqRkwN0yt6e/9B4N9tQXQ
R/MGNEqP9ito37cPwY+NvWb/l1pck563Aa/l8x67XY2RrzsC4Ho0nMMDzV0PYJlC
rZtm3WvI4Wcvrxy18TLhAzvMORr5/SZ4m39lIyaa0P+ARJL1mLh2sXSgs1elZFSK
+M5DxQDCaz1XCHz4qp/NTTkz07TtQQw=
-----END CERTIFICATE-----
