Certificate:
    Data:
        Version: 3 (0x2)
        Serial Number:
            b8:e9:81:4a:b2:5e:22:cb
    Signature Algorithm: sha256WithRSAEncryption
        Issuer: C=CH, O=HEIG-VD, CN=RAYBURN-Email
        Validity
            Not Before: Jun 18 14:23:42 2024 GMT
            Not After : Jul 23 14:23:42 2025 GMT
        Subject: C=CH, O=HEIG-VD, CN=nathan.rayburn@heig-vd.ch
        Subject Public Key Info:
            Public Key Algorithm: rsaEncryption
                Public-Key: (2048 bit)
                Modulus:
                    00:b2:d5:f8:7e:2b:9b:8c:64:86:d7:35:14:22:1f:
                    fb:f5:9c:77:2a:aa:fe:5d:6c:e0:e7:49:a6:06:ab:
                    63:1f:6e:1d:74:ba:24:0f:8c:41:d7:00:ad:21:53:
                    b6:f7:06:80:6c:0d:f8:97:21:43:61:e9:f7:01:54:
                    b1:69:49:ba:c9:51:02:0b:e9:07:79:c9:89:15:01:
                    2a:b9:75:bc:c2:d5:d2:88:ef:e7:93:fe:f1:11:2b:
                    41:0e:6c:9a:23:74:fe:ba:bd:d6:be:65:37:82:a5:
                    96:08:cd:ae:66:d3:e5:41:b6:b2:3d:e2:10:11:6e:
                    9d:5c:4d:26:87:6c:d4:91:37:9a:41:5c:f0:3e:1a:
                    be:65:74:d4:94:ee:07:ca:22:40:64:57:da:88:45:
                    75:c4:9a:9e:a7:2b:bb:fa:13:a9:0e:87:b2:b9:37:
                    89:71:68:3e:4f:d5:f3:8b:32:84:ac:c0:9c:33:bf:
                    1f:f3:09:68:03:0a:90:d1:38:4d:db:63:b4:0d:7d:
                    06:14:86:45:37:17:30:64:f8:fb:64:72:5b:3b:d0:
                    d9:78:d1:b1:2f:ca:ba:86:0a:d2:ee:06:d4:00:b3:
                    82:ef:97:32:fd:8d:13:75:65:a8:97:c8:88:da:8a:
                    24:2f:26:02:77:99:99:66:38:46:c3:f1:33:87:76:
                    2f:d9
                Exponent: 65537 (0x10001)
        X509v3 extensions:
            X509v3 Key Usage: critical
                Digital Signature, Key Encipherment
            X509v3 Basic Constraints: 
                CA:FALSE
            X509v3 Extended Key Usage: 
                E-mail Protection, TLS Web Client Authentication, Any Extended Key Usage
            X509v3 Subject Key Identifier: 
                02:2B:E8:07:7C:6D:D3:53:93:EC:E2:36:99:47:F5:87:8E:D5:CE:D6
            X509v3 Authority Key Identifier: 
                keyid:7F:18:FC:1C:30:AF:DE:A6:DE:28:2C:26:7D:2B:7D:41:F6:B7:75:65

            X509v3 Subject Alternative Name: 
                email:nathan.rayburn@heig-vd.ch
    Signature Algorithm: sha256WithRSAEncryption
         b7:2d:8b:27:be:a5:7c:01:fb:1c:e5:92:86:99:cf:70:1a:39:
         1e:c2:b6:a4:6c:55:9a:f7:b0:f2:b0:61:6d:3d:02:e0:03:4a:
         b7:6a:13:bd:2c:a2:3d:f4:08:d7:5f:07:44:80:12:8e:13:5f:
         14:20:77:f7:4a:d7:74:1d:44:d5:34:76:34:6f:85:99:f0:1f:
         b3:6f:65:93:8f:65:b1:52:30:83:02:65:ae:1d:ca:b4:76:02:
         bf:42:25:38:19:d3:fa:4b:c2:1f:31:ce:71:c5:ea:44:ee:6a:
         5b:47:cc:84:1a:d2:03:9a:eb:16:a5:a0:79:be:a8:76:fa:12:
         d3:88:d0:66:c3:c1:73:da:54:38:2d:47:86:fe:94:5b:58:79:
         99:43:2d:1e:e9:2c:cc:34:09:30:90:70:5e:8d:17:67:a4:39:
         b1:6f:eb:78:3c:44:2a:8d:40:36:a5:71:b6:69:c9:41:59:a9:
         f9:12:e4:16:2b:4e:d3:03:e9:87:c4:e3:3a:7e:2a:bc:a7:14:
         4c:0d:78:6b:77:f7:42:6e:83:f7:68:f6:fb:e7:59:a4:59:14:
         43:67:bb:68:e2:da:90:7d:19:a4:ca:65:2d:6f:94:1a:9d:76:
         2d:5c:d0:be:1b:ac:c6:1f:3e:a7:40:f1:fa:03:cb:f2:3c:25:
         d9:1f:0e:19
-----BEGIN CERTIFICATE-----
MIIDpzCCAo+gAwIBAgIJALjpgUqyXiLLMA0GCSqGSIb3DQEBCwUAMDcxCzAJBgNV
BAYTAkNIMRAwDgYDVQQKDAdIRUlHLVZEMRYwFAYDVQQDDA1SQVlCVVJOLUVtYWls
MB4XDTI0MDYxODE0MjM0MloXDTI1MDcyMzE0MjM0MlowQzELMAkGA1UEBhMCQ0gx
EDAOBgNVBAoMB0hFSUctVkQxIjAgBgNVBAMMGW5hdGhhbi5yYXlidXJuQGhlaWct
dmQuY2gwggEiMA0GCSqGSIb3DQEBAQUAA4IBDwAwggEKAoIBAQCy1fh+K5uMZIbX
NRQiH/v1nHcqqv5dbODnSaYGq2Mfbh10uiQPjEHXAK0hU7b3BoBsDfiXIUNh6fcB
VLFpSbrJUQIL6Qd5yYkVASq5dbzC1dKI7+eT/vERK0EObJojdP66vda+ZTeCpZYI
za5m0+VBtrI94hARbp1cTSaHbNSRN5pBXPA+Gr5ldNSU7gfKIkBkV9qIRXXEmp6n
K7v6E6kOh7K5N4lxaD5P1fOLMoSswJwzvx/zCWgDCpDROE3bY7QNfQYUhkU3FzBk
+Ptkcls70Nl40bEvyrqGCtLuBtQAs4LvlzL9jRN1ZaiXyIjaiiQvJgJ3mZlmOEbD
8TOHdi/ZAgMBAAGjgakwgaYwDgYDVR0PAQH/BAQDAgWgMAkGA1UdEwQCMAAwIwYD
VR0lBBwwGgYIKwYBBQUHAwQGCCsGAQUFBwMCBgRVHSUAMB0GA1UdDgQWBBQCK+gH
fG3TU5Ps4jaZR/WHjtXO1jAfBgNVHSMEGDAWgBR/GPwcMK/ept4oLCZ9K31B9rd1
ZTAkBgNVHREEHTAbgRluYXRoYW4ucmF5YnVybkBoZWlnLXZkLmNoMA0GCSqGSIb3
DQEBCwUAA4IBAQC3LYsnvqV8Afsc5ZKGmc9wGjkewrakbFWa97DysGFtPQLgA0q3
ahO9LKI99AjXXwdEgBKOE18UIHf3Std0HUTVNHY0b4WZ8B+zb2WTj2WxUjCDAmWu
Hcq0dgK/QiU4GdP6S8IfMc5xxepE7mpbR8yEGtIDmusWpaB5vqh2+hLTiNBmw8Fz
2lQ4LUeG/pRbWHmZQy0e6SzMNAkwkHBejRdnpDmxb+t4PEQqjUA2pXG2aclBWan5
EuQWK07TA+mHxOM6fiq8pxRMDXhrd/dCboP3aPb751mkWRRDZ7to4tqQfRmkymUt
b5QanXYtXNC+G6zGHz6nQPH6A8vyPCXZHw4Z
-----END CERTIFICATE-----
