Certificate:
    Data:
        Version: 3 (0x2)
        Serial Number:
            81:5c:55:ce:41:46:fc:12
    Signature Algorithm: sha256WithRSAEncryption
        Issuer: C=CH, O=HEIG-VD, CN=RAYBURN-TLS
        Validity
            Not Before: Jun 18 14:37:05 2024 GMT
            Not After : Jul 23 14:37:05 2025 GMT
        Subject: C=CH, O=HEIG-VD, CN=IP
        Subject Public Key Info:
            Public Key Algorithm: rsaEncryption
                Public-Key: (2048 bit)
                Modulus:
                    00:d8:ca:7a:e5:84:28:3b:b2:e4:37:73:40:d4:e9:
                    46:c5:4d:33:27:2a:4a:52:70:e9:40:9e:2a:31:b1:
                    39:1f:d4:d7:a8:9d:e9:91:ad:ac:ad:94:f2:b3:c7:
                    cf:d0:48:03:c5:df:d8:26:1e:80:d8:6a:4d:d0:d6:
                    d0:8c:32:0b:03:bc:05:3c:4b:db:fa:44:dd:89:26:
                    05:38:16:35:03:d6:5c:9a:a9:5e:bf:08:fa:0c:8c:
                    c0:fe:be:3a:ab:b9:49:d5:31:30:7e:dd:07:8b:49:
                    e6:77:2f:85:d6:41:82:8f:69:3c:c6:0a:66:eb:d2:
                    8b:e6:51:68:10:5e:c8:c6:1f:18:9a:7b:f4:32:7c:
                    88:20:0a:4a:ea:c9:e3:b0:3f:64:11:76:5d:a3:32:
                    16:93:dd:4a:f5:9e:3e:43:ea:bf:0d:6a:1c:83:9e:
                    35:f8:fb:c7:c5:cf:4f:8d:86:2b:80:7d:7a:19:71:
                    fa:62:67:cc:71:cb:74:3c:63:31:94:55:56:89:cc:
                    c1:61:8e:f5:cd:3c:ce:c0:52:67:8d:52:25:8a:da:
                    46:57:62:41:71:d5:66:3e:89:33:ec:a8:ab:d0:f6:
                    16:39:83:a4:33:84:d1:21:7f:96:2d:9e:6f:d4:79:
                    4c:2f:2f:af:0c:57:61:a4:e8:30:21:79:82:24:33:
                    2e:e7
                Exponent: 65537 (0x10001)
        X509v3 extensions:
            X509v3 Key Usage: critical
                Digital Signature, Key Encipherment
            X509v3 Basic Constraints: 
                CA:FALSE
            X509v3 Extended Key Usage: 
                TLS Web Server Authentication, TLS Web Client Authentication
            X509v3 Subject Key Identifier: 
                84:82:4B:65:31:76:0C:6F:52:5D:CE:F7:47:5D:91:88:AD:60:36:13
            X509v3 Authority Key Identifier: 
                keyid:48:74:E9:14:51:0A:18:B9:7A:F9:22:27:C0:D3:6F:C4:35:70:48:AE

            X509v3 Subject Alternative Name: 
                IP Address:10.190.133.22
    Signature Algorithm: sha256WithRSAEncryption
         55:57:ce:c1:6b:82:c3:06:23:24:ce:0f:83:38:bf:dd:ca:c6:
         b5:3c:15:f8:7d:8e:25:f9:8d:32:43:6a:5c:de:d9:0a:93:27:
         f2:c4:f2:42:a1:cc:71:36:c5:d3:b0:af:4d:46:ea:81:e1:94:
         5e:ce:95:b0:2a:58:f7:a3:b8:54:a8:bc:92:d9:0e:67:da:bb:
         67:c5:1c:a5:26:01:98:40:c1:c1:7b:61:b4:6b:8d:ea:03:51:
         18:2c:7c:0c:6c:f0:91:76:9a:01:ff:9f:4b:40:b4:ac:1a:05:
         09:d5:35:20:9f:59:e4:9c:52:da:57:f4:5b:32:a9:19:30:37:
         4c:ad:e9:ef:fd:07:83:7d:b5:05:d0:47:f3:06:34:4a:8f:f6:
         2b:68:df:b7:0f:c1:8f:8d:bd:66:ff:97:5a:5c:93:9e:b7:01:
         af:e5:f3:1e:bb:5d:8d:91:af:3b:02:e0:7a:34:9c:c3:03:cd:
         5d:0f:60:99:42:ad:9b:66:dd:6b:c8:e1:67:2f:af:1c:b5:f1:
         32:e1:03:3b:cc:39:1a:f9:fd:26:78:9b:7f:65:23:26:9a:d0:
         ff:80:44:92:f5:98:b8:76:b1:74:a0:b3:57:a5:64:54:8a:f8:
         ce:43:c5:00:c2:6b:3d:57:08:7c:f8:aa:9f:cd:4d:39:33:d3:
         b4:ed:41:0c
-----BEGIN CERTIFICATE-----
MIIDczCCAlugAwIBAgIJAIFcVc5BRvwSMA0GCSqGSIb3DQEBCwUAMDUxCzAJBgNV
BAYTAkNIMRAwDgYDVQQKDAdIRUlHLVZEMRQwEgYDVQQDDAtSQVlCVVJOLVRMUzAe
Fw0yNDA2MTgxNDM3MDVaFw0yNTA3MjMxNDM3MDVaMCwxCzAJBgNVBAYTAkNIMRAw
DgYDVQQKDAdIRUlHLVZEMQswCQYDVQQDDAJJUDCCASIwDQYJKoZIhvcNAQEBBQAD
ggEPADCCAQoCggEBANjKeuWEKDuy5DdzQNTpRsVNMycqSlJw6UCeKjGxOR/U16id
6ZGtrK2U8rPHz9BIA8Xf2CYegNhqTdDW0IwyCwO8BTxL2/pE3YkmBTgWNQPWXJqp
Xr8I+gyMwP6+Oqu5SdUxMH7dB4tJ5ncvhdZBgo9pPMYKZuvSi+ZRaBBeyMYfGJp7
9DJ8iCAKSurJ47A/ZBF2XaMyFpPdSvWePkPqvw1qHIOeNfj7x8XPT42GK4B9ehlx
+mJnzHHLdDxjMZRVVonMwWGO9c08zsBSZ41SJYraRldiQXHVZj6JM+yoq9D2FjmD
pDOE0SF/li2eb9R5TC8vrwxXYaToMCF5giQzLucCAwEAAaOBjjCBizAOBgNVHQ8B
Af8EBAMCBaAwCQYDVR0TBAIwADAdBgNVHSUEFjAUBggrBgEFBQcDAQYIKwYBBQUH
AwIwHQYDVR0OBBYEFISCS2UxdgxvUl3O90ddkYitYDYTMB8GA1UdIwQYMBaAFEh0
6RRRChi5evkiJ8DTb8Q1cEiuMA8GA1UdEQQIMAaHBAq+hRYwDQYJKoZIhvcNAQEL
BQADggEBAFVXzsFrgsMGIyTOD4M4v93KxrU8Ffh9jiX5jTJDalze2QqTJ/LE8kKh
zHE2xdOwr01G6oHhlF7OlbAqWPejuFSovJLZDmfau2fFHKUmAZhAwcF7YbRrjeoD
URgsfAxs8JF2mgH/n0tAtKwaBQnVNSCfWeScUtpX9FsyqRkwN0yt6e/9B4N9tQXQ
R/MGNEqP9ito37cPwY+NvWb/l1pck563Aa/l8x67XY2RrzsC4Ho0nMMDzV0PYJlC
rZtm3WvI4Wcvrxy18TLhAzvMORr5/SZ4m39lIyaa0P+ARJL1mLh2sXSgs1elZFSK
+M5DxQDCaz1XCHz4qp/NTTkz07TtQQw=
-----END CERTIFICATE-----
Certificate:
    Data:
        Version: 3 (0x2)
        Serial Number:
            07:ca:c7:21:14:87:ff:ad:10:07:7f:e3:da:28:4f:19:ce:84:d1:7f
        Signature Algorithm: sha256WithRSAEncryption
        Issuer: C=CH, O=HEIG-VD, CN=HEIG-VDRoot
        Validity
            Not Before: Jun 18 13:56:45 2024 GMT
            Not After : Jun 18 13:56:45 2034 GMT
        Subject: C=CH, O=HEIG-VD, CN=RAYBURN-TLS
        Subject Public Key Info:
            Public Key Algorithm: rsaEncryption
                Public-Key: (2048 bit)
                Modulus:
                    00:e8:0c:dc:02:ba:43:28:a9:4b:8a:47:27:7c:d9:
                    e1:7a:75:38:9d:06:ad:74:b0:b3:e2:4f:8b:ab:da:
                    aa:0f:c6:58:aa:3e:a9:77:ac:b3:28:21:6b:eb:9f:
                    e5:b0:7c:66:89:8f:4c:3f:79:b2:1e:59:62:0c:7c:
                    7c:31:29:bc:dd:80:f8:d3:ab:d0:55:65:c4:c7:a6:
                    24:e9:1b:ab:94:8e:01:12:08:cd:1d:38:a3:63:23:
                    37:db:5e:41:b4:c6:a3:9e:5f:78:ab:df:d2:b1:0f:
                    c2:31:51:63:fd:17:f3:da:e4:b6:88:b6:a2:a0:8b:
                    9f:7f:2c:fd:50:ee:ef:02:6c:b2:27:7c:72:4d:e7:
                    6a:68:68:7c:fe:73:aa:fc:bb:d5:77:ee:82:4b:9d:
                    5c:14:28:f6:a3:c4:7e:f7:3a:84:4c:b2:e0:b4:cf:
                    07:72:62:0d:7a:39:3e:08:0c:a8:5f:28:4a:99:1f:
                    6b:9f:74:ec:81:f6:69:f1:09:f7:9b:6c:8a:dd:f1:
                    36:1e:49:37:d2:56:91:e9:32:ea:13:3a:5a:a8:fc:
                    79:a4:9a:d3:ec:8d:4e:54:59:2f:12:08:b5:64:36:
                    5e:77:ed:04:98:6b:9e:b5:13:7b:d7:1e:0b:67:fa:
                    3a:b5:76:24:b6:b9:71:57:41:df:a7:7d:59:eb:e2:
                    ce:99
                Exponent: 65537 (0x10001)
        X509v3 extensions:
            X509v3 Key Usage: critical
                Certificate Sign, CRL Sign
            X509v3 Basic Constraints: critical
                CA:TRUE, pathlen:0
            X509v3 Subject Key Identifier: 
                48:74:E9:14:51:0A:18:B9:7A:F9:22:27:C0:D3:6F:C4:35:70:48:AE
            X509v3 Authority Key Identifier: 
                3B:D0:A5:0C:62:70:E5:F4:B4:04:20:46:55:E8:EB:57:19:89:3E:E4
    Signature Algorithm: sha256WithRSAEncryption
    Signature Value:
        4f:5b:67:b5:d2:27:8c:34:bf:2b:c7:eb:b8:6b:e7:5e:42:a0:
        49:5e:8e:53:ce:36:eb:a3:81:14:29:59:00:0d:10:39:83:be:
        f1:6d:db:be:8a:62:19:73:f9:f2:8f:75:ab:5e:3c:a6:9c:b4:
        e8:48:91:19:38:41:fd:70:f6:6e:b1:f0:82:dd:73:13:d0:05:
        0b:5c:e2:2b:0e:2e:4e:96:90:4a:66:91:4c:ce:93:80:4e:5d:
        29:af:c7:82:88:79:a9:f0:11:01:20:43:9b:d8:4a:0c:24:7d:
        28:06:ad:08:af:57:28:22:a5:9b:6a:48:eb:d1:82:18:f8:2b:
        83:31:5f:00:c5:6a:a2:84:2e:04:fd:8c:3a:8f:4d:90:82:9c:
        94:46:bb:08:62:d8:70:c0:26:50:30:e1:c0:03:ff:9d:00:a1:
        31:35:05:3b:27:62:c4:0f:99:05:95:d3:9c:74:db:cc:4f:2d:
        a2:ff:cc:96:f4:c1:ca:12:0c:ad:be:4b:0c:4a:bf:34:56:bf:
        15:2c:8a:81:e5:1d:a0:e1:ff:56:1c:d2:00:f9:a8:15:ec:6c:
        78:2d:14:3d:32:11:0f:36:77:6c:9f:f8:be:57:2b:76:05:ab:
        5b:eb:99:21:0e:d9:a4:2b:9f:f6:59:fc:70:79:e7:a6:5a:80:
        12:b4:2f:92
-----BEGIN CERTIFICATE-----
MIIDXjCCAkagAwIBAgIUB8rHIRSH/60QB3/j2ihPGc6E0X8wDQYJKoZIhvcNAQEL
BQAwNTELMAkGA1UEBhMCQ0gxEDAOBgNVBAoMB0hFSUctVkQxFDASBgNVBAMMC0hF
SUctVkRSb290MB4XDTI0MDYxODEzNTY0NVoXDTM0MDYxODEzNTY0NVowNTELMAkG
A1UEBhMCQ0gxEDAOBgNVBAoMB0hFSUctVkQxFDASBgNVBAMMC1JBWUJVUk4tVExT
MIIBIjANBgkqhkiG9w0BAQEFAAOCAQ8AMIIBCgKCAQEA6AzcArpDKKlLikcnfNnh
enU4nQatdLCz4k+Lq9qqD8ZYqj6pd6yzKCFr65/lsHxmiY9MP3myHlliDHx8MSm8
3YD406vQVWXEx6Yk6RurlI4BEgjNHTijYyM3215BtMajnl94q9/SsQ/CMVFj/Rfz
2uS2iLaioIuffyz9UO7vAmyyJ3xyTedqaGh8/nOq/LvVd+6CS51cFCj2o8R+9zqE
TLLgtM8HcmINejk+CAyoXyhKmR9rn3TsgfZp8Qn3m2yK3fE2Hkk30laR6TLqEzpa
qPx5pJrT7I1OVFkvEgi1ZDZed+0EmGuetRN71x4LZ/o6tXYktrlxV0Hfp31Z6+LO
mQIDAQABo2YwZDAOBgNVHQ8BAf8EBAMCAQYwEgYDVR0TAQH/BAgwBgEB/wIBADAd
BgNVHQ4EFgQUSHTpFFEKGLl6+SInwNNvxDVwSK4wHwYDVR0jBBgwFoAUO9ClDGJw
5fS0BCBGVejrVxmJPuQwDQYJKoZIhvcNAQELBQADggEBAE9bZ7XSJ4w0vyvH67hr
515CoElejlPONuujgRQpWQANEDmDvvFt276KYhlz+fKPdatePKactOhIkRk4Qf1w
9m6x8ILdcxPQBQtc4isOLk6WkEpmkUzOk4BOXSmvx4KIeanwEQEgQ5vYSgwkfSgG
rQivVygipZtqSOvRghj4K4MxXwDFaqKELgT9jDqPTZCCnJRGuwhi2HDAJlAw4cAD
/50AoTE1BTsnYsQPmQWV05x028xPLaL/zJb0wcoSDK2+SwxKvzRWvxUsioHlHaDh
/1Yc0gD5qBXsbHgtFD0yEQ82d2yf+L5XK3YFq1vrmSEO2aQrn/ZZ/HB556ZagBK0
L5I=
-----END CERTIFICATE-----
